; Function Attrs: mustprogress nounwind uwtable
define void @_ZN3nix7toLowerENSt7__cxx1112basic_stringIcSt11char_traitsIcESaIcEEE(ptr dead_on_unwind noalias writable sret(%"class.std::__cxx11::basic_string") align 8 %0, ptr noundef %1) local_unnamed_addr #6 personality ptr @__gxx_personality_v0 {
  %3 = load ptr, ptr %1, align 8
  %4 = getelementptr inbounds i8, ptr %1, i64 8
  %5 = load i64, ptr %4, align 8
  %6 = getelementptr inbounds i8, ptr %3, i64 %5
  %7 = icmp eq i64 %5, 0
  br i1 %7, label %._crit_edge, label %.lr.ph

.lr.ph:                                           ; preds = %2, %.lr.ph
  %.sroa.04.07 = phi ptr [ %12, %.lr.ph ], [ %3, %2 ]
  %8 = load i8, ptr %.sroa.04.07, align 1
  %9 = sext i8 %8 to i32
  %10 = tail call i32 @tolower(i32 noundef %9) #30
  %11 = trunc i32 %10 to i8
  store i8 %11, ptr %.sroa.04.07, align 1
  %12 = getelementptr inbounds i8, ptr %.sroa.04.07, i64 1
  %13 = icmp eq ptr %12, %6
  br i1 %13, label %._crit_edge, label %.lr.ph

._crit_edge:                                      ; preds = %.lr.ph, %2
  %14 = getelementptr inbounds i8, ptr %0, i64 16
  tail call void @_ZNSaIcEC2ERKS_(ptr noundef nonnull align 1 dereferenceable(1) %0, ptr noundef nonnull align 1 dereferenceable(1) %1) #25
  store ptr %14, ptr %0, align 8
  %15 = load ptr, ptr %1, align 8
  %16 = getelementptr inbounds i8, ptr %1, i64 16
  %17 = icmp eq ptr %15, %16
  br i1 %17, label %18, label %_ZNKSt7__cxx1112basic_stringIcSt11char_traitsIcESaIcEE11_M_is_localEv.exit.i

18:                                               ; preds = %._crit_edge
  %19 = load i64, ptr %4, align 8
  %20 = icmp ult i64 %19, 16
  tail call void @llvm.assume(i1 %20)
  %21 = add nuw nsw i64 %19, 1
  tail call void @llvm.memcpy.p0.p0.i64(ptr noundef nonnull align 8 dereferenceable(1) %14, ptr noundef nonnull align 8 dereferenceable(1) %15, i64 %21, i1 false)
  br label %_ZNSt7__cxx1112basic_stringIcSt11char_traitsIcESaIcEEC2EOS4_.exit

_ZNKSt7__cxx1112basic_stringIcSt11char_traitsIcESaIcEE11_M_is_localEv.exit.i: ; preds = %._crit_edge
  store ptr %15, ptr %0, align 8
  %22 = load i64, ptr %16, align 8
  store i64 %22, ptr %14, align 8
  %.pre = load i64, ptr %4, align 8
  br label %_ZNSt7__cxx1112basic_stringIcSt11char_traitsIcESaIcEEC2EOS4_.exit

_ZNSt7__cxx1112basic_stringIcSt11char_traitsIcESaIcEEC2EOS4_.exit: ; preds = %18, %_ZNKSt7__cxx1112basic_stringIcSt11char_traitsIcESaIcEE11_M_is_localEv.exit.i
  %23 = phi i64 [ %19, %18 ], [ %.pre, %_ZNKSt7__cxx1112basic_stringIcSt11char_traitsIcESaIcEE11_M_is_localEv.exit.i ]
  %24 = getelementptr inbounds i8, ptr %0, i64 8
  store i64 %23, ptr %24, align 8
  store ptr %16, ptr %1, align 8
  store i64 0, ptr %4, align 8
  store i8 0, ptr %16, align 1
  ret void
}